target datalayout = "e-m:e-p270:32:32-p271:32:32-p272:64:64-i64:64-i128:128-f80:128-n8:16:32:64-S128"
target triple = "x86_64-pc-linux-gnu"

%union.pthread_mutex_t = type { %struct.__pthread_mutex_s }
%struct.__pthread_mutex_s = type { i32, i32, i32, i32, i32, i16, i16, %struct.__pthread_internal_list }
%struct.__pthread_internal_list = type { ptr, ptr }
%struct.slurm_bb_ops = type { ptr, ptr, ptr, ptr, ptr, ptr, ptr, ptr, ptr, ptr, ptr, ptr, ptr, ptr, ptr, ptr, ptr, ptr, ptr, ptr }
%struct.timeval = type { i64, i64 }

@g_context_lock = internal global %union.pthread_mutex_t zeroinitializer, align 8
@.str.1 = private unnamed_addr constant [29 x i8] c"%s: pthread_mutex_lock(): %m\00", align 1
@g_context_cnt = internal global i32 -1, align 4
@ops = internal global ptr null, align 8
@.str.8 = private unnamed_addr constant [31 x i8] c"%s: pthread_mutex_unlock(): %m\00", align 1
@__func__.bb_g_job_start_stage_out = private unnamed_addr constant [25 x i8] c"bb_g_job_start_stage_out\00", align 1

; Function Attrs: nounwind uwtable
define dso_local i32 @bb_g_job_start_stage_out(ptr noundef %0) #0 {
  %2 = alloca ptr, align 8
  %3 = alloca %struct.timeval, align 8
  %4 = alloca %struct.timeval, align 8
  %5 = alloca [20 x i8], align 16
  %6 = alloca i64, align 8
  %7 = alloca i32, align 4
  %8 = alloca i32, align 4
  %9 = alloca i32, align 4
  %10 = alloca i32, align 4
  %11 = alloca i32, align 4
  store ptr %0, ptr %2, align 8
  call void @llvm.lifetime.start.p0(i64 16, ptr %3) #7
  call void @llvm.lifetime.start.p0(i64 16, ptr %4) #7
  call void @llvm.lifetime.start.p0(i64 20, ptr %5) #7
  call void @llvm.memset.p0.i64(ptr align 16 %5, i8 0, i64 20, i1 false)
  call void @llvm.lifetime.start.p0(i64 8, ptr %6) #7
  call void @llvm.lifetime.start.p0(i64 4, ptr %7) #7
  call void @llvm.lifetime.start.p0(i64 4, ptr %8) #7
  store i32 0, ptr %8, align 4
  call void @llvm.lifetime.start.p0(i64 4, ptr %9) #7
  %12 = call i32 @gettimeofday(ptr noundef %3, ptr noundef null) #7
  br label %13

13:                                               ; preds = %1
  call void @llvm.lifetime.start.p0(i64 4, ptr %10) #7
  %14 = call i32 @pthread_mutex_lock(ptr noundef @g_context_lock) #7
  store i32 %14, ptr %10, align 4
  %15 = load i32, ptr %10, align 4
  %16 = icmp ne i32 %15, 0
  br i1 %16, label %17, label %20

17:                                               ; preds = %13
  %18 = load i32, ptr %10, align 4
  %19 = call ptr @__errno_location() #8
  store i32 %18, ptr %19, align 4
  call void (ptr, ...) @fatal_abort(ptr noundef @.str.1, ptr noundef @__func__.bb_g_job_start_stage_out) #9
  unreachable

20:                                               ; preds = %13
  call void @llvm.lifetime.end.p0(i64 4, ptr %10) #7
  br label %21

21:                                               ; preds = %20
  br label %22

22:                                               ; preds = %21
  store i32 0, ptr %7, align 4
  br label %23

23:                                               ; preds = %45, %22
  %24 = load i32, ptr %7, align 4
  %25 = load i32, ptr @g_context_cnt, align 4
  %26 = icmp slt i32 %24, %25
  br i1 %26, label %27, label %48

27:                                               ; preds = %23
  %28 = load ptr, ptr @ops, align 8
  %29 = load i32, ptr %7, align 4
  %30 = sext i32 %29 to i64
  %31 = getelementptr inbounds %struct.slurm_bb_ops, ptr %28, i64 %30
  %32 = getelementptr inbounds nuw %struct.slurm_bb_ops, ptr %31, i32 0, i32 14
  %33 = load ptr, ptr %32, align 8
  %34 = load ptr, ptr %2, align 8
  %35 = call i32 %33(ptr noundef %34)
  store i32 %35, ptr %9, align 4
  %36 = load i32, ptr %8, align 4
  %37 = load i32, ptr %9, align 4
  %38 = icmp sgt i32 %36, %37
  br i1 %38, label %39, label %41

39:                                               ; preds = %27
  %40 = load i32, ptr %8, align 4
  br label %43

41:                                               ; preds = %27
  %42 = load i32, ptr %9, align 4
  br label %43

43:                                               ; preds = %41, %39
  %44 = phi i32 [ %40, %39 ], [ %42, %41 ]
  store i32 %44, ptr %8, align 4
  br label %45

45:                                               ; preds = %43
  %46 = load i32, ptr %7, align 4
  %47 = add nsw i32 %46, 1
  store i32 %47, ptr %7, align 4
  br label %23, !llvm.loop !28

48:                                               ; preds = %23
  br label %49

49:                                               ; preds = %48
  call void @llvm.lifetime.start.p0(i64 4, ptr %11) #7
  %50 = call i32 @pthread_mutex_unlock(ptr noundef @g_context_lock) #7
  store i32 %50, ptr %11, align 4
  %51 = load i32, ptr %11, align 4
  %52 = icmp ne i32 %51, 0
  br i1 %52, label %53, label %56

53:                                               ; preds = %49
  %54 = load i32, ptr %11, align 4
  %55 = call ptr @__errno_location() #8
  store i32 %54, ptr %55, align 4
  call void (ptr, ...) @fatal_abort(ptr noundef @.str.8, ptr noundef @__func__.bb_g_job_start_stage_out) #9
  unreachable

56:                                               ; preds = %49
  call void @llvm.lifetime.end.p0(i64 4, ptr %11) #7
  br label %57

57:                                               ; preds = %56
  br label %58

58:                                               ; preds = %57
  br label %59

59:                                               ; preds = %58
  %60 = call i32 @gettimeofday(ptr noundef %4, ptr noundef null) #7
  %61 = getelementptr inbounds [20 x i8], ptr %5, i64 0, i64 0
  call void @slurm_diff_tv_str(ptr noundef %3, ptr noundef %4, ptr noundef %61, i32 noundef 20, ptr noundef @__func__.bb_g_job_start_stage_out, i64 noundef 0, ptr noundef %6)
  br label %62

62:                                               ; preds = %59
  br label %63

63:                                               ; preds = %62
  %64 = load i32, ptr %8, align 4
  call void @llvm.lifetime.end.p0(i64 4, ptr %9) #7
  call void @llvm.lifetime.end.p0(i64 4, ptr %8) #7
  call void @llvm.lifetime.end.p0(i64 4, ptr %7) #7
  call void @llvm.lifetime.end.p0(i64 8, ptr %6) #7
  call void @llvm.lifetime.end.p0(i64 20, ptr %5) #7
  call void @llvm.lifetime.end.p0(i64 16, ptr %4) #7
  call void @llvm.lifetime.end.p0(i64 16, ptr %3) #7
  ret i32 %64
}